target datalayout = "e-m:e-p270:32:32-p271:32:32-p272:64:64-i64:64-i128:128-f80:128-n8:16:32:64-S128"
target triple = "x86_64-pc-linux-gnu"

%struct.darktable_t = type { %struct.dt_codepath_t, i32, i32, ptr, ptr, ptr, ptr, ptr, ptr, ptr, ptr, ptr, ptr, ptr, ptr, ptr, ptr, ptr, ptr, ptr, ptr, ptr, ptr, ptr, ptr, ptr, ptr, ptr, ptr, ptr, [64 x %struct.dt_pthread_mutex_t], %struct.dt_pthread_mutex_t, %struct.dt_pthread_mutex_t, %struct.dt_pthread_mutex_t, %struct.dt_pthread_mutex_t, %struct.dt_pthread_mutex_t, ptr, ptr, ptr, ptr, ptr, ptr, ptr, ptr, ptr, ptr, ptr, ptr, ptr, %struct.dt_lua_state_t, ptr, double, ptr, i32, [47 x i32], i32, i32, ptr, ptr, %struct.dt_sys_resources_t, %struct.dt_backthumb_t, %struct.dt_gimp_t }
%struct.dt_codepath_t = type { i8, [3 x i8] }
%struct.dt_pthread_mutex_t = type { %union.pthread_mutex_t }
%union.pthread_mutex_t = type { %struct.__pthread_mutex_s }
%struct.__pthread_mutex_s = type { i32, i32, i32, i32, i32, i16, i16, %struct.__pthread_internal_list }
%struct.__pthread_internal_list = type { ptr, ptr }
%struct.dt_lua_state_t = type { i32 }
%struct.dt_sys_resources_t = type { i64, i64, ptr, ptr, i32 }
%struct.dt_backthumb_t = type { double, double, i32, i32, i32, i32 }
%struct.dt_gimp_t = type { i32, ptr, ptr, i32, i32 }
%struct.dt_lib_module_t = type { %struct.dt_action_t, ptr, ptr, ptr, ptr, ptr, ptr, ptr, ptr, ptr, ptr, ptr, ptr, ptr, ptr, ptr, ptr, ptr, ptr, ptr, ptr, ptr, ptr, ptr, ptr, ptr, ptr, ptr, ptr, ptr, ptr, [128 x i8], ptr, ptr, i32, ptr, ptr, ptr, i32 }
%struct.dt_action_t = type { i32, ptr, ptr, ptr, ptr, ptr }
%struct.dt_view_t = type { %struct.dt_action_t, ptr, ptr, ptr, ptr, ptr, ptr, ptr, ptr, ptr, ptr, ptr, ptr, ptr, ptr, ptr, ptr, ptr, ptr, ptr, ptr, ptr, [64 x i8], ptr, ptr, i32, i32, float, float, float, float, float, float, float, float }
%struct.dt_lib_t = type { ptr, ptr, %struct.anon }
%struct.anon = type { %struct.anon.0, %struct.anon.1, %struct.anon.2, %struct.anon.3 }
%struct.anon.0 = type { ptr, ptr, ptr, ptr, ptr, i32, i32, i32, ptr, ptr, ptr, ptr, ptr }
%struct.anon.1 = type { ptr, ptr, i32 }
%struct.anon.2 = type { ptr }
%struct.anon.3 = type { i32 }
%struct._GList = type { ptr, ptr, ptr }

@darktable = external global %struct.darktable_t, align 8
@.str = private unnamed_addr constant [35 x i8] c"module %s doesn't have views flags\00", align 1
@.str.1 = private unnamed_addr constant [9 x i8] c"_visible\00", align 1
@.str.79 = private unnamed_addr constant [28 x i8] c"lighttable/ui/single_module\00", align 1

; Function Attrs: nounwind uwtable
define i32 @dt_lib_is_visible_in_view(ptr noundef %0, ptr noundef %1) #0 {
  %3 = alloca i32, align 4
  %4 = alloca ptr, align 8
  %5 = alloca ptr, align 8
  %6 = alloca i32, align 4
  %7 = alloca ptr, align 8
  store ptr %0, ptr %4, align 8, !tbaa !6
  store ptr %1, ptr %5, align 8, !tbaa !11
  %8 = load ptr, ptr %4, align 8, !tbaa !6
  %9 = getelementptr inbounds nuw %struct.dt_lib_module_t, ptr %8, i32 0, i32 3
  %10 = load ptr, ptr %9, align 8, !tbaa !13
  %11 = icmp ne ptr %10, null
  br i1 %11, label %26, label %12

12:                                               ; preds = %2
  br label %13

13:                                               ; preds = %12
  %14 = load i32, ptr getelementptr inbounds nuw (%struct.darktable_t, ptr @darktable, i32 0, i32 2), align 8, !tbaa !21
  %15 = xor i32 %14, -1
  %16 = and i32 0, %15
  %17 = icmp ne i32 %16, 0
  br i1 %17, label %24, label %18

18:                                               ; preds = %13
  %19 = load ptr, ptr %4, align 8, !tbaa !6
  %20 = getelementptr inbounds nuw %struct.dt_lib_module_t, ptr %19, i32 0, i32 2
  %21 = load ptr, ptr %20, align 8, !tbaa !58
  %22 = load ptr, ptr %4, align 8, !tbaa !6
  %23 = call ptr %21(ptr noundef %22)
  call void (ptr, ...) @dt_print_ext(ptr noundef @.str, ptr noundef %23)
  br label %24

24:                                               ; preds = %18, %13
  br label %25

25:                                               ; preds = %24
  store i32 0, ptr %3, align 4
  br label %53

26:                                               ; preds = %2
  call void @llvm.lifetime.start.p0(i64 4, ptr %6) #12
  %27 = load ptr, ptr %4, align 8, !tbaa !6
  %28 = getelementptr inbounds nuw %struct.dt_lib_module_t, ptr %27, i32 0, i32 3
  %29 = load ptr, ptr %28, align 8, !tbaa !13
  %30 = load ptr, ptr %4, align 8, !tbaa !6
  %31 = call i32 %29(ptr noundef %30)
  %32 = load ptr, ptr %5, align 8, !tbaa !11
  %33 = getelementptr inbounds nuw %struct.dt_view_t, ptr %32, i32 0, i32 3
  %34 = load ptr, ptr %33, align 8, !tbaa !59
  %35 = load ptr, ptr %5, align 8, !tbaa !11
  %36 = call i32 %34(ptr noundef %35)
  %37 = and i32 %31, %36
  store i32 %37, ptr %6, align 4, !tbaa !62
  call void @llvm.lifetime.start.p0(i64 8, ptr %7) #12
  %38 = load ptr, ptr %4, align 8, !tbaa !6
  %39 = load ptr, ptr %5, align 8, !tbaa !11
  %40 = call ptr @_get_lib_view_path(ptr noundef %38, ptr noundef %39, ptr noundef @.str.1)
  store ptr %40, ptr %7, align 8, !tbaa !63
  %41 = load ptr, ptr %7, align 8, !tbaa !63
  %42 = icmp ne ptr %41, null
  br i1 %42, label %43, label %50

43:                                               ; preds = %26
  %44 = load ptr, ptr %7, align 8, !tbaa !63
  %45 = call i32 @dt_conf_key_exists(ptr noundef %44)
  %46 = icmp ne i32 %45, 0
  br i1 %46, label %47, label %50

47:                                               ; preds = %43
  %48 = load ptr, ptr %7, align 8, !tbaa !63
  %49 = call i32 @dt_conf_get_bool(ptr noundef %48)
  store i32 %49, ptr %6, align 4, !tbaa !62
  br label %50

50:                                               ; preds = %47, %43, %26
  %51 = load ptr, ptr %7, align 8, !tbaa !63
  call void @g_free(ptr noundef %51)
  %52 = load i32, ptr %6, align 4, !tbaa !62
  store i32 %52, ptr %3, align 4
  call void @llvm.lifetime.end.p0(i64 8, ptr %7) #12
  call void @llvm.lifetime.end.p0(i64 4, ptr %6) #12
  br label %53

53:                                               ; preds = %50, %25
  %54 = load i32, ptr %3, align 4
  ret i32 %54
}

; Function Attrs: inlinehint nounwind uwtable
define internal ptr @DTGTK_EXPANDER(ptr noundef %0) #5 {
  %2 = alloca ptr, align 8
  store ptr %0, ptr %2, align 8, !tbaa !76
  %3 = load ptr, ptr %2, align 8, !tbaa !76
  %4 = call i64 @dtgtk_expander_get_type()
  %5 = call ptr @g_type_check_instance_cast(ptr noundef %3, i64 noundef %4)
  ret ptr %5
}

; Function Attrs: nounwind uwtable
define internal i32 @_lib_gui_reset_callback(ptr noundef %0, ptr noundef %1, ptr noundef %2) #0 {
  %4 = alloca ptr, align 8
  %5 = alloca ptr, align 8
  %6 = alloca ptr, align 8
  %7 = alloca ptr, align 8
  store ptr %0, ptr %4, align 8, !tbaa !118
  store ptr %1, ptr %5, align 8, !tbaa !120
  store ptr %2, ptr %6, align 8, !tbaa !76
  call void @llvm.lifetime.start.p0(i64 8, ptr %7) #12
  %8 = load ptr, ptr %6, align 8, !tbaa !76
  store ptr %8, ptr %7, align 8, !tbaa !6
  %9 = load ptr, ptr %7, align 8, !tbaa !6
  %10 = getelementptr inbounds nuw %struct.dt_lib_module_t, ptr %9, i32 0, i32 10
  %11 = load ptr, ptr %10, align 8, !tbaa !116
  %12 = load ptr, ptr %7, align 8, !tbaa !6
  call void %11(ptr noundef %12)
  call void @llvm.lifetime.end.p0(i64 8, ptr %7) #12
  ret i32 1
}

; Function Attrs: nounwind uwtable
define internal void @show_module_callback(ptr noundef %0) #0 {
  %2 = alloca ptr, align 8
  %3 = alloca ptr, align 8
  %4 = alloca i32, align 4
  %5 = alloca i32, align 4
  %6 = alloca ptr, align 8
  %7 = alloca ptr, align 8
  store ptr %0, ptr %2, align 8, !tbaa !6
  %8 = load ptr, ptr %2, align 8, !tbaa !6
  %9 = getelementptr inbounds nuw %struct.dt_lib_module_t, ptr %8, i32 0, i32 5
  %10 = load ptr, ptr %9, align 8, !tbaa !65
  %11 = load ptr, ptr %2, align 8, !tbaa !6
  %12 = call i32 %10(ptr noundef %11)
  %13 = icmp ne i32 %12, 0
  br i1 %13, label %15, label %14

14:                                               ; preds = %1
  br label %106

15:                                               ; preds = %1
  %16 = call i32 @dt_conf_get_bool(ptr noundef @.str.79)
  %17 = icmp ne i32 %16, 0
  br i1 %17, label %18, label %96

18:                                               ; preds = %15
  call void @llvm.lifetime.start.p0(i64 8, ptr %3) #12
  %19 = load ptr, ptr getelementptr inbounds nuw (%struct.darktable_t, ptr @darktable, i32 0, i32 11), align 8, !tbaa !64
  %20 = call ptr @dt_view_manager_get_current_view(ptr noundef %19)
  store ptr %20, ptr %3, align 8, !tbaa !11
  call void @llvm.lifetime.start.p0(i64 4, ptr %4) #12
  %21 = load ptr, ptr %2, align 8, !tbaa !6
  %22 = call i32 @dt_lib_get_container(ptr noundef %21)
  store i32 %22, ptr %4, align 4, !tbaa !62
  call void @llvm.lifetime.start.p0(i64 4, ptr %5) #12
  store i32 1, ptr %5, align 4, !tbaa !62
  call void @llvm.lifetime.start.p0(i64 8, ptr %6) #12
  %23 = load ptr, ptr getelementptr inbounds nuw (%struct.darktable_t, ptr @darktable, i32 0, i32 10), align 8, !tbaa !79
  %24 = getelementptr inbounds nuw %struct.dt_lib_t, ptr %23, i32 0, i32 0
  %25 = load ptr, ptr %24, align 8, !tbaa !80
  store ptr %25, ptr %6, align 8, !tbaa !89
  br label %26

26:                                               ; preds = %78, %18
  %27 = load ptr, ptr %6, align 8, !tbaa !89
  %28 = icmp ne ptr %27, null
  br i1 %28, label %30, label %29

29:                                               ; preds = %26
  call void @llvm.lifetime.end.p0(i64 8, ptr %6) #12
  br label %80

30:                                               ; preds = %26
  call void @llvm.lifetime.start.p0(i64 8, ptr %7) #12
  %31 = load ptr, ptr %6, align 8, !tbaa !89
  %32 = getelementptr inbounds nuw %struct._GList, ptr %31, i32 0, i32 0
  %33 = load ptr, ptr %32, align 8, !tbaa !90
  store ptr %33, ptr %7, align 8, !tbaa !6
  %34 = load ptr, ptr %7, align 8, !tbaa !6
  %35 = load ptr, ptr %2, align 8, !tbaa !6
  %36 = icmp ne ptr %34, %35
  br i1 %36, label %37, label %69

37:                                               ; preds = %30
  %38 = load ptr, ptr %7, align 8, !tbaa !6
  %39 = call i32 @dt_lib_get_container(ptr noundef %38)
  %40 = load i32, ptr %4, align 4, !tbaa !62
  %41 = icmp eq i32 %39, %40
  br i1 %41, label %42, label %69

42:                                               ; preds = %37
  %43 = load ptr, ptr %7, align 8, !tbaa !6
  %44 = getelementptr inbounds nuw %struct.dt_lib_module_t, ptr %43, i32 0, i32 5
  %45 = load ptr, ptr %44, align 8, !tbaa !65
  %46 = load ptr, ptr %7, align 8, !tbaa !6
  %47 = call i32 %45(ptr noundef %46)
  %48 = icmp ne i32 %47, 0
  br i1 %48, label %49, label %69

49:                                               ; preds = %42
  %50 = load ptr, ptr %7, align 8, !tbaa !6
  %51 = load ptr, ptr %3, align 8, !tbaa !11
  %52 = call i32 @dt_lib_is_visible_in_view(ptr noundef %50, ptr noundef %51)
  %53 = icmp ne i32 %52, 0
  br i1 %53, label %54, label %69

54:                                               ; preds = %49
  %55 = load i32, ptr %5, align 4, !tbaa !62
  %56 = icmp ne i32 %55, 0
  br i1 %56, label %57, label %65

57:                                               ; preds = %54
  %58 = load ptr, ptr %7, align 8, !tbaa !6
  %59 = getelementptr inbounds nuw %struct.dt_lib_module_t, ptr %58, i32 0, i32 33
  %60 = load ptr, ptr %59, align 8, !tbaa !107
  %61 = call ptr @DTGTK_EXPANDER(ptr noundef %60)
  %62 = call i32 @dtgtk_expander_get_expanded(ptr noundef %61)
  %63 = icmp ne i32 %62, 0
  %64 = xor i1 %63, true
  br label %65

65:                                               ; preds = %57, %54
  %66 = phi i1 [ false, %54 ], [ %64, %57 ]
  %67 = zext i1 %66 to i32
  store i32 %67, ptr %5, align 4, !tbaa !62
  %68 = load ptr, ptr %7, align 8, !tbaa !6
  call void @dt_lib_gui_set_expanded(ptr noundef %68, i32 noundef 0)
  br label %69

69:                                               ; preds = %65, %49, %42, %37, %30
  call void @llvm.lifetime.end.p0(i64 8, ptr %7) #12
  br label %70

70:                                               ; preds = %69
  %71 = load ptr, ptr %6, align 8, !tbaa !89
  %72 = icmp ne ptr %71, null
  br i1 %72, label %73, label %77

73:                                               ; preds = %70
  %74 = load ptr, ptr %6, align 8, !tbaa !89
  %75 = getelementptr inbounds nuw %struct._GList, ptr %74, i32 0, i32 1
  %76 = load ptr, ptr %75, align 8, !tbaa !93
  br label %78

77:                                               ; preds = %70
  br label %78

78:                                               ; preds = %77, %73
  %79 = phi ptr [ %76, %73 ], [ null, %77 ]
  store ptr %79, ptr %6, align 8, !tbaa !89
  br label %26

80:                                               ; preds = %29
  %81 = load i32, ptr %5, align 4, !tbaa !62
  %82 = icmp ne i32 %81, 0
  br i1 %82, label %83, label %93

83:                                               ; preds = %80
  %84 = load ptr, ptr %2, align 8, !tbaa !6
  %85 = load ptr, ptr %2, align 8, !tbaa !6
  %86 = getelementptr inbounds nuw %struct.dt_lib_module_t, ptr %85, i32 0, i32 33
  %87 = load ptr, ptr %86, align 8, !tbaa !107
  %88 = call ptr @DTGTK_EXPANDER(ptr noundef %87)
  %89 = call i32 @dtgtk_expander_get_expanded(ptr noundef %88)
  %90 = icmp ne i32 %89, 0
  %91 = xor i1 %90, true
  %92 = zext i1 %91 to i32
  call void @dt_lib_gui_set_expanded(ptr noundef %84, i32 noundef %92)
  br label %95

93:                                               ; preds = %80
  %94 = load ptr, ptr %2, align 8, !tbaa !6
  call void @dt_lib_gui_set_expanded(ptr noundef %94, i32 noundef 1)
  br label %95

95:                                               ; preds = %93, %83
  call void @llvm.lifetime.end.p0(i64 4, ptr %5) #12
  call void @llvm.lifetime.end.p0(i64 4, ptr %4) #12
  call void @llvm.lifetime.end.p0(i64 8, ptr %3) #12
  br label %106

96:                                               ; preds = %15
  %97 = load ptr, ptr %2, align 8, !tbaa !6
  %98 = load ptr, ptr %2, align 8, !tbaa !6
  %99 = getelementptr inbounds nuw %struct.dt_lib_module_t, ptr %98, i32 0, i32 33
  %100 = load ptr, ptr %99, align 8, !tbaa !107
  %101 = call ptr @DTGTK_EXPANDER(ptr noundef %100)
  %102 = call i32 @dtgtk_expander_get_expanded(ptr noundef %101)
  %103 = icmp ne i32 %102, 0
  %104 = xor i1 %103, true
  %105 = zext i1 %104 to i32
  call void @dt_lib_gui_set_expanded(ptr noundef %97, i32 noundef %105)
  br label %106

106:                                              ; preds = %14, %96, %95
  ret void
}

; Function Attrs: nounwind uwtable
define internal float @_action_process(ptr noundef %0, i32 noundef %1, i32 noundef %2, float noundef %3) #0 {
  %5 = alloca ptr, align 8
  %6 = alloca i32, align 4
  %7 = alloca i32, align 4
  %8 = alloca float, align 4
  %9 = alloca ptr, align 8
  store ptr %0, ptr %5, align 8, !tbaa !76
  store i32 %1, ptr %6, align 4, !tbaa !62
  store i32 %2, ptr %7, align 4, !tbaa !62
  store float %3, ptr %8, align 4, !tbaa !213
  call void @llvm.lifetime.start.p0(i64 8, ptr %9) #12
  %10 = load ptr, ptr %5, align 8, !tbaa !76
  store ptr %10, ptr %9, align 8, !tbaa !6
  %11 = load float, ptr %8, align 4, !tbaa !213
  %12 = fcmp reassoc nsz arcp contract afn une float %11, 0xC7EFFFFFE0000000
  br i1 %12, label %13, label %41

13:                                               ; preds = %4
  %14 = load i32, ptr %6, align 4, !tbaa !62
  switch i32 %14, label %40 [
    i32 0, label %15
    i32 1, label %17
    i32 2, label %26
  ]

15:                                               ; preds = %13
  %16 = load ptr, ptr %9, align 8, !tbaa !6
  call void @show_module_callback(ptr noundef %16)
  br label %40

17:                                               ; preds = %13
  %18 = load ptr, ptr %9, align 8, !tbaa !6
  %19 = getelementptr inbounds nuw %struct.dt_lib_module_t, ptr %18, i32 0, i32 10
  %20 = load ptr, ptr %19, align 8, !tbaa !116
  %21 = icmp ne ptr %20, null
  br i1 %21, label %22, label %25

22:                                               ; preds = %17
  %23 = load ptr, ptr %9, align 8, !tbaa !6
  %24 = call i32 @_lib_gui_reset_callback(ptr noundef null, ptr noundef null, ptr noundef %23)
  br label %25

25:                                               ; preds = %22, %17
  br label %40

26:                                               ; preds = %13
  %27 = load ptr, ptr %9, align 8, !tbaa !6
  %28 = getelementptr inbounds nuw %struct.dt_lib_module_t, ptr %27, i32 0, i32 23
  %29 = load ptr, ptr %28, align 8, !tbaa !113
  %30 = icmp ne ptr %29, null
  br i1 %30, label %36, label %31

31:                                               ; preds = %26
  %32 = load ptr, ptr %9, align 8, !tbaa !6
  %33 = getelementptr inbounds nuw %struct.dt_lib_module_t, ptr %32, i32 0, i32 27
  %34 = load ptr, ptr %33, align 8, !tbaa !114
  %35 = icmp ne ptr %34, null
  br i1 %35, label %36, label %39

36:                                               ; preds = %31, %26
  %37 = load ptr, ptr %9, align 8, !tbaa !6
  %38 = call i32 @_presets_popup_callback(ptr noundef null, ptr noundef null, ptr noundef %37)
  br label %39

39:                                               ; preds = %36, %31
  br label %40

40:                                               ; preds = %13, %39, %25, %15
  br label %41

41:                                               ; preds = %40, %4
  %42 = load i32, ptr %6, align 4, !tbaa !62
  %43 = icmp eq i32 %42, 0
  br i1 %43, label %44, label %51

44:                                               ; preds = %41
  %45 = load ptr, ptr %9, align 8, !tbaa !6
  %46 = getelementptr inbounds nuw %struct.dt_lib_module_t, ptr %45, i32 0, i32 33
  %47 = load ptr, ptr %46, align 8, !tbaa !107
  %48 = call ptr @DTGTK_EXPANDER(ptr noundef %47)
  %49 = call i32 @dtgtk_expander_get_expanded(ptr noundef %48)
  %50 = icmp ne i32 %49, 0
  br label %51

51:                                               ; preds = %44, %41
  %52 = phi i1 [ false, %41 ], [ %50, %44 ]
  %53 = zext i1 %52 to i32
  %54 = sitofp i32 %53 to float
  call void @llvm.lifetime.end.p0(i64 8, ptr %9) #12
  ret float %54
}