; Function Attrs: nounwind uwtable
define internal float @_action_process(ptr noundef %0, i32 noundef %1, i32 %2, float noundef %3) #0 {
  %5 = fcmp reassoc nsz arcp contract afn une float %3, 0xC7EFFFFFE0000000
  br i1 %5, label %6, label %show_module_callback.exit

6:                                                ; preds = %4
  switch i32 %1, label %show_module_callback.exit.thread [
    i32 0, label %7
    i32 1, label %63
    i32 2, label %67
  ]

7:                                                ; preds = %6
  %8 = getelementptr inbounds nuw i8, ptr %0, i64 80
  %9 = load ptr, ptr %8, align 8, !tbaa !21
  %10 = tail call i32 %9(ptr noundef %0) #19
  %.not.i = icmp eq i32 %10, 0
  br i1 %.not.i, label %show_module_callback.exit.thread12, label %11

11:                                               ; preds = %7
  %12 = tail call i32 @dt_conf_get_bool(ptr noundef nonnull @.str.79) #19
  %.not25.i = icmp eq i32 %12, 0
  br i1 %.not25.i, label %.sink.split.sink.split.i, label %13

13:                                               ; preds = %11
  %14 = load ptr, ptr getelementptr inbounds nuw (i8, ptr @darktable, i64 80), align 8, !tbaa !22
  %15 = tail call ptr @dt_view_manager_get_current_view(ptr noundef %14) #19
  %16 = tail call i32 @dt_lib_get_container(ptr noundef nonnull %0)
  %17 = load ptr, ptr getelementptr inbounds nuw (i8, ptr @darktable, i64 72), align 8, !tbaa !71
  %.02337.i = load ptr, ptr %17, align 8, !tbaa !72
  %.not2738.i = icmp eq ptr %.02337.i, null
  br i1 %.not2738.i, label %.sink.split.sink.split.i, label %.lr.ph.i

.lr.ph.i:                                         ; preds = %13
  %18 = getelementptr inbounds nuw i8, ptr %15, i64 64
  br label %20

._crit_edge.i:                                    ; preds = %55
  %19 = icmp eq i32 %.1.i, 0
  br i1 %19, label %.sink.split.i, label %.sink.split.sink.split.i

20:                                               ; preds = %55, %.lr.ph.i
  %.02340.i = phi ptr [ %.02337.i, %.lr.ph.i ], [ %.023.i, %55 ]
  %.039.i = phi i32 [ 1, %.lr.ph.i ], [ %.1.i, %55 ]
  %21 = load ptr, ptr %.02340.i, align 8, !tbaa !73
  %.not30.i = icmp eq ptr %21, %0
  br i1 %.not30.i, label %55, label %22

22:                                               ; preds = %20
  %23 = tail call i32 @dt_lib_get_container(ptr noundef %21)
  %24 = icmp eq i32 %23, %16
  br i1 %24, label %25, label %55

25:                                               ; preds = %22
  %26 = getelementptr inbounds nuw i8, ptr %21, i64 80
  %27 = load ptr, ptr %26, align 8, !tbaa !21
  %28 = tail call i32 %27(ptr noundef %21) #19
  %.not31.i = icmp eq i32 %28, 0
  br i1 %.not31.i, label %55, label %29

29:                                               ; preds = %25
  %30 = getelementptr inbounds nuw i8, ptr %21, i64 64
  %31 = load ptr, ptr %30, align 8, !tbaa !6
  %.not.i.i = icmp eq ptr %31, null
  br i1 %.not.i.i, label %dt_lib_is_visible_in_view.exit.thread.i, label %35

dt_lib_is_visible_in_view.exit.thread.i:          ; preds = %29
  %32 = getelementptr inbounds nuw i8, ptr %21, i64 56
  %33 = load ptr, ptr %32, align 8, !tbaa !17
  %34 = tail call ptr %33(ptr noundef nonnull %21) #19
  tail call void (ptr, ...) @dt_print_ext(ptr noundef nonnull @.str, ptr noundef %34) #19
  br label %55

35:                                               ; preds = %29
  %36 = tail call i32 %31(ptr noundef nonnull %21) #19
  %37 = load ptr, ptr %18, align 8, !tbaa !18
  %38 = tail call i32 %37(ptr noundef %15) #19
  %39 = and i32 %38, %36
  %40 = tail call fastcc ptr @_get_lib_view_path(ptr noundef nonnull %21, ptr noundef %15, ptr noundef nonnull @.str.1)
  %.not17.i.i = icmp eq ptr %40, null
  br i1 %.not17.i.i, label %dt_lib_is_visible_in_view.exit.i, label %41

41:                                               ; preds = %35
  %42 = tail call i32 @dt_conf_key_exists(ptr noundef nonnull %40) #19
  %.not18.i.i = icmp eq i32 %42, 0
  br i1 %.not18.i.i, label %dt_lib_is_visible_in_view.exit.i, label %43

43:                                               ; preds = %41
  %44 = tail call i32 @dt_conf_get_bool(ptr noundef nonnull %40) #19
  br label %dt_lib_is_visible_in_view.exit.i

dt_lib_is_visible_in_view.exit.i:                 ; preds = %43, %41, %35
  %.014.i.i = phi i32 [ %44, %43 ], [ %39, %41 ], [ %39, %35 ]
  tail call void @g_free(ptr noundef %40) #19
  %.not32.i = icmp eq i32 %.014.i.i, 0
  br i1 %.not32.i, label %55, label %45

45:                                               ; preds = %dt_lib_is_visible_in_view.exit.i
  %.not33.i = icmp eq i32 %.039.i, 0
  br i1 %.not33.i, label %53, label %46

46:                                               ; preds = %45
  %47 = getelementptr inbounds nuw i8, ptr %21, i64 424
  %48 = load ptr, ptr %47, align 8, !tbaa !86
  %49 = tail call i64 @dtgtk_expander_get_type() #19
  %50 = tail call ptr @g_type_check_instance_cast(ptr noundef %48, i64 noundef %49) #19
  %51 = tail call i32 @dtgtk_expander_get_expanded(ptr noundef %50) #19
  %.not34.i = icmp eq i32 %51, 0
  %52 = zext i1 %.not34.i to i32
  br label %53

53:                                               ; preds = %46, %45
  %54 = phi i32 [ 0, %45 ], [ %52, %46 ]
  tail call void @dt_lib_gui_set_expanded(ptr noundef nonnull %21, i32 noundef 0)
  br label %55

55:                                               ; preds = %53, %dt_lib_is_visible_in_view.exit.i, %dt_lib_is_visible_in_view.exit.thread.i, %25, %22, %20
  %.1.i = phi i32 [ %54, %53 ], [ %.039.i, %dt_lib_is_visible_in_view.exit.i ], [ %.039.i, %25 ], [ %.039.i, %22 ], [ %.039.i, %20 ], [ %.039.i, %dt_lib_is_visible_in_view.exit.thread.i ]
  %56 = getelementptr inbounds nuw i8, ptr %.02340.i, i64 8
  %.023.i = load ptr, ptr %56, align 8, !tbaa !72
  %.not27.i = icmp eq ptr %.023.i, null
  br i1 %.not27.i, label %._crit_edge.i, label %20

.sink.split.sink.split.i:                         ; preds = %._crit_edge.i, %13, %11
  %57 = getelementptr inbounds nuw i8, ptr %0, i64 424
  %58 = load ptr, ptr %57, align 8, !tbaa !86
  %59 = tail call i64 @dtgtk_expander_get_type() #19
  %60 = tail call ptr @g_type_check_instance_cast(ptr noundef %58, i64 noundef %59) #19
  %61 = tail call i32 @dtgtk_expander_get_expanded(ptr noundef %60) #19
  %.not26.i = icmp eq i32 %61, 0
  %62 = zext i1 %.not26.i to i32
  br label %.sink.split.i

.sink.split.i:                                    ; preds = %.sink.split.sink.split.i, %._crit_edge.i
  %.sink.i = phi i32 [ 1, %._crit_edge.i ], [ %62, %.sink.split.sink.split.i ]
  tail call void @dt_lib_gui_set_expanded(ptr noundef nonnull %0, i32 noundef %.sink.i)
  br label %show_module_callback.exit

63:                                               ; preds = %6
  %64 = getelementptr inbounds nuw i8, ptr %0, i64 120
  %65 = load ptr, ptr %64, align 8, !tbaa !102
  %.not11 = icmp eq ptr %65, null
  br i1 %.not11, label %show_module_callback.exit.thread, label %66

66:                                               ; preds = %63
  tail call void %65(ptr noundef nonnull %0) #19
  br label %show_module_callback.exit.thread

67:                                               ; preds = %6
  %68 = getelementptr inbounds nuw i8, ptr %0, i64 224
  %69 = load ptr, ptr %68, align 8, !tbaa !99
  %.not = icmp eq ptr %69, null
  br i1 %.not, label %70, label %73

70:                                               ; preds = %67
  %71 = getelementptr inbounds nuw i8, ptr %0, i64 256
  %72 = load ptr, ptr %71, align 8, !tbaa !100
  %.not10 = icmp eq ptr %72, null
  br i1 %.not10, label %show_module_callback.exit.thread, label %73

73:                                               ; preds = %70, %67
  %74 = tail call i32 @_presets_popup_callback(ptr noundef null, ptr poison, ptr noundef nonnull %0)
  br label %show_module_callback.exit.thread

show_module_callback.exit:                        ; preds = %.sink.split.i, %4
  %75 = icmp eq i32 %1, 0
  br i1 %75, label %show_module_callback.exit.thread12, label %show_module_callback.exit.thread

show_module_callback.exit.thread12:               ; preds = %7, %show_module_callback.exit
  %76 = getelementptr inbounds nuw i8, ptr %0, i64 424
  %77 = load ptr, ptr %76, align 8, !tbaa !86
  %78 = tail call i64 @dtgtk_expander_get_type() #19
  %79 = tail call ptr @g_type_check_instance_cast(ptr noundef %77, i64 noundef %78) #19
  %80 = tail call i32 @dtgtk_expander_get_expanded(ptr noundef %79) #19
  %81 = icmp ne i32 %80, 0
  %82 = uitofp i1 %81 to float
  br label %show_module_callback.exit.thread

show_module_callback.exit.thread:                 ; preds = %70, %73, %63, %66, %6, %show_module_callback.exit.thread12, %show_module_callback.exit
  %83 = phi float [ 0.000000e+00, %show_module_callback.exit ], [ %82, %show_module_callback.exit.thread12 ], [ 0.000000e+00, %6 ], [ 0.000000e+00, %66 ], [ 0.000000e+00, %63 ], [ 0.000000e+00, %73 ], [ 0.000000e+00, %70 ]
  ret float %83
}